#include <math.h>
#include <stdio.h>
#include <stdlib.h>
#include <string.h>

void main()
{
	int m,n,z[8][8],i,j,k,u,o=0;
    scanf("%d,%d",&m,&n);
	for(i=0;i<m;i++)
	{
		for(j=0;j<n;j++)
		{
			scanf("%d",&z[i][j]);
		}
	}
	for(i=0;i<m;i++)
	{
		for(j=0;j<n;j++)
		{
			for(k=0;k<n;k++)
			{
				if(z[i][j]<z[i][k])break;
			}
			if(k==n)
			{
				for(u=0;u<m;u++)
				{
					if(z[i][j]>z[u][j])break;
				}
				if(u==m)printf("%d+%d",i,j);
				else o++;
			}
		}
	}
	if(o==m)printf("No");
}